target datalayout = "e-m:e-p270:32:32-p271:32:32-p272:64:64-i64:64-i128:128-f80:128-n8:16:32:64-S128"
target triple = "x86_64-pc-linux-gnu"

%struct.Expr = type { i32 }
%struct.SubscriptingRef = type { %struct.Expr, i32, i32, i32, i32, i32, ptr, ptr, ptr, ptr }

; Function Attrs: nounwind uwtable
define internal zeroext i1 @_equalSubscriptingRef(ptr noundef %0, ptr noundef %1) #0 {
  %3 = alloca i1, align 1
  %4 = alloca ptr, align 8
  %5 = alloca ptr, align 8
  store ptr %0, ptr %4, align 8
  store ptr %1, ptr %5, align 8
  br label %6

6:                                                ; preds = %2
  %7 = load ptr, ptr %4, align 8
  %8 = getelementptr inbounds nuw %struct.SubscriptingRef, ptr %7, i32 0, i32 1
  %9 = load i32, ptr %8, align 4
  %10 = load ptr, ptr %5, align 8
  %11 = getelementptr inbounds nuw %struct.SubscriptingRef, ptr %10, i32 0, i32 1
  %12 = load i32, ptr %11, align 4
  %13 = icmp ne i32 %9, %12
  br i1 %13, label %14, label %15

14:                                               ; preds = %6
  store i1 false, ptr %3, align 1
  br label %105

15:                                               ; preds = %6
  br label %16

16:                                               ; preds = %15
  br label %17

17:                                               ; preds = %16
  %18 = load ptr, ptr %4, align 8
  %19 = getelementptr inbounds nuw %struct.SubscriptingRef, ptr %18, i32 0, i32 2
  %20 = load i32, ptr %19, align 8
  %21 = load ptr, ptr %5, align 8
  %22 = getelementptr inbounds nuw %struct.SubscriptingRef, ptr %21, i32 0, i32 2
  %23 = load i32, ptr %22, align 8
  %24 = icmp ne i32 %20, %23
  br i1 %24, label %25, label %26

25:                                               ; preds = %17
  store i1 false, ptr %3, align 1
  br label %105

26:                                               ; preds = %17
  br label %27

27:                                               ; preds = %26
  br label %28

28:                                               ; preds = %27
  %29 = load ptr, ptr %4, align 8
  %30 = getelementptr inbounds nuw %struct.SubscriptingRef, ptr %29, i32 0, i32 3
  %31 = load i32, ptr %30, align 4
  %32 = load ptr, ptr %5, align 8
  %33 = getelementptr inbounds nuw %struct.SubscriptingRef, ptr %32, i32 0, i32 3
  %34 = load i32, ptr %33, align 4
  %35 = icmp ne i32 %31, %34
  br i1 %35, label %36, label %37

36:                                               ; preds = %28
  store i1 false, ptr %3, align 1
  br label %105

37:                                               ; preds = %28
  br label %38

38:                                               ; preds = %37
  br label %39

39:                                               ; preds = %38
  %40 = load ptr, ptr %4, align 8
  %41 = getelementptr inbounds nuw %struct.SubscriptingRef, ptr %40, i32 0, i32 4
  %42 = load i32, ptr %41, align 8
  %43 = load ptr, ptr %5, align 8
  %44 = getelementptr inbounds nuw %struct.SubscriptingRef, ptr %43, i32 0, i32 4
  %45 = load i32, ptr %44, align 8
  %46 = icmp ne i32 %42, %45
  br i1 %46, label %47, label %48

47:                                               ; preds = %39
  store i1 false, ptr %3, align 1
  br label %105

48:                                               ; preds = %39
  br label %49

49:                                               ; preds = %48
  br label %50

50:                                               ; preds = %49
  %51 = load ptr, ptr %4, align 8
  %52 = getelementptr inbounds nuw %struct.SubscriptingRef, ptr %51, i32 0, i32 5
  %53 = load i32, ptr %52, align 4
  %54 = load ptr, ptr %5, align 8
  %55 = getelementptr inbounds nuw %struct.SubscriptingRef, ptr %54, i32 0, i32 5
  %56 = load i32, ptr %55, align 4
  %57 = icmp ne i32 %53, %56
  br i1 %57, label %58, label %59

58:                                               ; preds = %50
  store i1 false, ptr %3, align 1
  br label %105

59:                                               ; preds = %50
  br label %60

60:                                               ; preds = %59
  br label %61

61:                                               ; preds = %60
  %62 = load ptr, ptr %4, align 8
  %63 = getelementptr inbounds nuw %struct.SubscriptingRef, ptr %62, i32 0, i32 6
  %64 = load ptr, ptr %63, align 8
  %65 = load ptr, ptr %5, align 8
  %66 = getelementptr inbounds nuw %struct.SubscriptingRef, ptr %65, i32 0, i32 6
  %67 = load ptr, ptr %66, align 8
  %68 = call zeroext i1 @equal(ptr noundef %64, ptr noundef %67)
  br i1 %68, label %70, label %69

69:                                               ; preds = %61
  store i1 false, ptr %3, align 1
  br label %105

70:                                               ; preds = %61
  br label %71

71:                                               ; preds = %70
  br label %72

72:                                               ; preds = %71
  %73 = load ptr, ptr %4, align 8
  %74 = getelementptr inbounds nuw %struct.SubscriptingRef, ptr %73, i32 0, i32 7
  %75 = load ptr, ptr %74, align 8
  %76 = load ptr, ptr %5, align 8
  %77 = getelementptr inbounds nuw %struct.SubscriptingRef, ptr %76, i32 0, i32 7
  %78 = load ptr, ptr %77, align 8
  %79 = call zeroext i1 @equal(ptr noundef %75, ptr noundef %78)
  br i1 %79, label %81, label %80

80:                                               ; preds = %72
  store i1 false, ptr %3, align 1
  br label %105

81:                                               ; preds = %72
  br label %82

82:                                               ; preds = %81
  br label %83

83:                                               ; preds = %82
  %84 = load ptr, ptr %4, align 8
  %85 = getelementptr inbounds nuw %struct.SubscriptingRef, ptr %84, i32 0, i32 8
  %86 = load ptr, ptr %85, align 8
  %87 = load ptr, ptr %5, align 8
  %88 = getelementptr inbounds nuw %struct.SubscriptingRef, ptr %87, i32 0, i32 8
  %89 = load ptr, ptr %88, align 8
  %90 = call zeroext i1 @equal(ptr noundef %86, ptr noundef %89)
  br i1 %90, label %92, label %91

91:                                               ; preds = %83
  store i1 false, ptr %3, align 1
  br label %105

92:                                               ; preds = %83
  br label %93

93:                                               ; preds = %92
  br label %94

94:                                               ; preds = %93
  %95 = load ptr, ptr %4, align 8
  %96 = getelementptr inbounds nuw %struct.SubscriptingRef, ptr %95, i32 0, i32 9
  %97 = load ptr, ptr %96, align 8
  %98 = load ptr, ptr %5, align 8
  %99 = getelementptr inbounds nuw %struct.SubscriptingRef, ptr %98, i32 0, i32 9
  %100 = load ptr, ptr %99, align 8
  %101 = call zeroext i1 @equal(ptr noundef %97, ptr noundef %100)
  br i1 %101, label %103, label %102

102:                                              ; preds = %94
  store i1 false, ptr %3, align 1
  br label %105

103:                                              ; preds = %94
  br label %104

104:                                              ; preds = %103
  store i1 true, ptr %3, align 1
  br label %105

105:                                              ; preds = %104, %102, %91, %80, %69, %58, %47, %36, %25, %14
  %106 = load i1, ptr %3, align 1
  ret i1 %106
}