; Function Attrs: nounwind uwtable
define internal fastcc zeroext i1 @_equalSubscriptingRef(ptr noundef nonnull readonly captures(none) %0, ptr noundef nonnull readonly captures(none) %1) unnamed_addr #0 {
  %3 = getelementptr inbounds nuw i8, ptr %0, i64 4
  %4 = load i32, ptr %3, align 4
  %5 = getelementptr inbounds nuw i8, ptr %1, i64 4
  %6 = load i32, ptr %5, align 4
  %.not = icmp eq i32 %4, %6
  br i1 %.not, label %7, label %51

7:                                                ; preds = %2
  %8 = getelementptr inbounds nuw i8, ptr %0, i64 8
  %9 = load i32, ptr %8, align 8
  %10 = getelementptr inbounds nuw i8, ptr %1, i64 8
  %11 = load i32, ptr %10, align 8
  %.not19 = icmp eq i32 %9, %11
  br i1 %.not19, label %12, label %51

12:                                               ; preds = %7
  %13 = getelementptr inbounds nuw i8, ptr %0, i64 12
  %14 = load i32, ptr %13, align 4
  %15 = getelementptr inbounds nuw i8, ptr %1, i64 12
  %16 = load i32, ptr %15, align 4
  %.not20 = icmp eq i32 %14, %16
  br i1 %.not20, label %17, label %51

17:                                               ; preds = %12
  %18 = getelementptr inbounds nuw i8, ptr %0, i64 16
  %19 = load i32, ptr %18, align 8
  %20 = getelementptr inbounds nuw i8, ptr %1, i64 16
  %21 = load i32, ptr %20, align 8
  %.not21 = icmp eq i32 %19, %21
  br i1 %.not21, label %22, label %51

22:                                               ; preds = %17
  %23 = getelementptr inbounds nuw i8, ptr %0, i64 20
  %24 = load i32, ptr %23, align 4
  %25 = getelementptr inbounds nuw i8, ptr %1, i64 20
  %26 = load i32, ptr %25, align 4
  %.not22 = icmp eq i32 %24, %26
  br i1 %.not22, label %27, label %51

27:                                               ; preds = %22
  %28 = getelementptr inbounds nuw i8, ptr %0, i64 24
  %29 = load ptr, ptr %28, align 8
  %30 = getelementptr inbounds nuw i8, ptr %1, i64 24
  %31 = load ptr, ptr %30, align 8
  %32 = tail call zeroext i1 @equal(ptr noundef %29, ptr noundef %31)
  br i1 %32, label %33, label %51

33:                                               ; preds = %27
  %34 = getelementptr inbounds nuw i8, ptr %0, i64 32
  %35 = load ptr, ptr %34, align 8
  %36 = getelementptr inbounds nuw i8, ptr %1, i64 32
  %37 = load ptr, ptr %36, align 8
  %38 = tail call zeroext i1 @equal(ptr noundef %35, ptr noundef %37)
  br i1 %38, label %39, label %51

39:                                               ; preds = %33
  %40 = getelementptr inbounds nuw i8, ptr %0, i64 40
  %41 = load ptr, ptr %40, align 8
  %42 = getelementptr inbounds nuw i8, ptr %1, i64 40
  %43 = load ptr, ptr %42, align 8
  %44 = tail call zeroext i1 @equal(ptr noundef %41, ptr noundef %43)
  br i1 %44, label %45, label %51

45:                                               ; preds = %39
  %46 = getelementptr inbounds nuw i8, ptr %0, i64 48
  %47 = load ptr, ptr %46, align 8
  %48 = getelementptr inbounds nuw i8, ptr %1, i64 48
  %49 = load ptr, ptr %48, align 8
  %50 = tail call zeroext i1 @equal(ptr noundef %47, ptr noundef %49)
  br label %51

51:                                               ; preds = %45, %39, %33, %27, %22, %17, %12, %7, %2
  %.0 = phi i1 [ false, %2 ], [ false, %7 ], [ false, %12 ], [ false, %17 ], [ false, %22 ], [ false, %27 ], [ false, %33 ], [ false, %39 ], [ %50, %45 ]
  ret i1 %.0
}